(lp0
ccopy_reg
_reconstructor
p1
(cmorpher.misc.memory
Memory
p2
c__builtin__
object
p3
Ntp4
Rp5
(dp6
S'mem'
p7
(dp8
I4096
g1
(cmorpher.misc.block
Block
p9
g3
Ntp10
Rp11
(dp12
S'active'
p13
I00
sS'data'
p14
S'\x03\x00\x00\x00A\x00\x00\x00\x00\x00'
p15
sS'addr'
p16
I4096
sS'size'
p17
I8
sbssS'P'
p18
c__builtin__
set
p19
((lp20
tp21
Rp22
sS'arg_fmt'
p23
S'Ic'
p24
sS'ordinal'
p25
I1
sS'esp'
p26
I4096
sbag1
(g2
g3
Ntp27
Rp28
(dp29
g7
(dp30
I4096
g1
(g9
g3
Ntp31
Rp32
(dp33
g13
I00
sg14
S'0\x00\x00\x00\x00\x00\x00\x00\x00\x00'
p34
sg16
I4096
sg17
I8
sbsI8192
g1
(g9
g3
Ntp35
Rp36
(dp37
g13
I00
sg14
S'0\x00\x00\x00\x00\x00\x00\x00\x00\x00'
p38
sg16
I8192
sg17
I8
sbssg18
g19
((lp39
tp40
Rp41
sg23
g24
sg25
I1
sg26
I8192
sbag1
(g2
g3
Ntp42
Rp43
(dp44
g7
(dp45
I4096
g1
(g9
g3
Ntp46
Rp47
(dp48
g13
I00
sg14
S'\x01\x00\x00\x00B\x00\x00\x00\x00\x00'
p49
sg16
I4096
sg17
I8
sbssg18
g19
((lp50
tp51
Rp52
sg23
g24
sg25
I1
sg26
I4096
sba.