(lp0
ccopy_reg
_reconstructor
p1
(cmorpher.misc.memory
Memory
p2
c__builtin__
object
p3
Ntp4
Rp5
(dp6
S'mem'
p7
(dp8
I4096
g1
(cmorpher.misc.block
Block
p9
g3
Ntp10
Rp11
(dp12
S'active'
p13
I00
sS'data'
p14
S'\x00\x00\x00\x00\x04\x00\x00\x00\x00\x00'
p15
sS'addr'
p16
I4096
sS'size'
p17
I8
sbsI8192
g1
(g9
g3
Ntp18
Rp19
(dp20
g13
I00
sg14
S'\x11\x00\x00\x00\x08\x00\x00\x00\x00\x00'
p21
sg16
I8192
sg17
I8
sbssS'P'
p22
c__builtin__
set
p23
((lp24
tp25
Rp26
sS'arg_fmt'
p27
S'II'
p28
sS'ordinal'
p29
I2
sS'esp'
p30
I4096
sba.