ccopy_reg
_reconstructor
p0
(cmorpher.misc.memory
Memory
p1
c__builtin__
object
p2
Ntp3
Rp4
(dp5
S'mem'
p6
(dp7
I4096
g0
(cmorpher.misc.block
Block
p8
g2
Ntp9
Rp10
(dp11
S'active'
p12
I00
sS'data'
p13
S'\x05\x00\x00\x00\x06\x00\x00\x00\x00'
p14
sS'addr'
p15
I4096
sS'size'
p16
I8
sbsI8192
g0
(g8
g2
Ntp17
Rp18
(dp19
g12
I00
sg13
S'\x11\x00\x00\x00\x08\x00\x00\x00\x00'
p20
sg15
I8192
sg16
I8
sbssS'P'
p21
c__builtin__
set
p22
((lp23
tp24
Rp25
sS'arg_fmt'
p26
S'II'
p27
sS'ordinal'
p28
I2
sS'esp'
p29
I8192
sb.